target datalayout = "e-m:e-p270:32:32-p271:32:32-p272:64:64-i64:64-i128:128-f80:128-n8:16:32:64-S128"
target triple = "x86_64-pc-linux-gnu"

; Function Attrs: mustprogress nounwind uwtable
define linkonce_odr hidden noundef i32 @_ZN24SharedStringDecompressor21get_compressed_lengthEc(i8 noundef signext %0) #4 comdat align 2 {
  %2 = alloca i8, align 1
  store i8 %0, ptr %2, align 1
  %3 = load i8, ptr %2, align 1
  %4 = sext i8 %3 to i32
  %5 = and i32 %4, 96
  %6 = trunc i32 %5 to i8
  %7 = sext i8 %6 to i32
  %8 = ashr i32 %7, 5
  ret i32 %8
}

; Function Attrs: mustprogress nounwind uwtable
define linkonce_odr hidden noundef zeroext i1 @_ZN24SharedStringDecompressor13is_compressedEa(i8 noundef signext %0) #4 comdat align 2 {
  %2 = alloca i8, align 1
  store i8 %0, ptr %2, align 1
  %3 = load i8, ptr %2, align 1
  %4 = sext i8 %3 to i32
  %5 = icmp slt i32 %4, 0
  ret i1 %5
}

; Function Attrs: mustprogress uwtable
define hidden noundef i32 @_ZN24SharedStringDecompressor14decompress_intERPh(ptr noundef nonnull align 8 dereferenceable(8) %0) #0 align 2 {
  %2 = alloca ptr, align 8
  %3 = alloca i32, align 4
  %4 = alloca i32, align 4
  %5 = alloca i8, align 1
  %6 = alloca i8, align 1
  %7 = alloca i32, align 4
  store ptr %0, ptr %2, align 8
  store i32 4, ptr %3, align 4
  store i32 0, ptr %4, align 4
  %8 = load ptr, ptr %2, align 8
  %9 = load ptr, ptr %8, align 8
  %10 = load i8, ptr %9, align 1
  store i8 %10, ptr %5, align 1
  %11 = load i8, ptr %5, align 1
  %12 = call noundef zeroext i1 @_ZN24SharedStringDecompressor13is_compressedEa(i8 noundef signext %11)
  br i1 %12, label %13, label %59

13:                                               ; preds = %1
  %14 = load i8, ptr %5, align 1
  %15 = call noundef i32 @_ZN24SharedStringDecompressor21get_compressed_lengthEc(i8 noundef signext %14)
  store i32 %15, ptr %3, align 4
  %16 = load i8, ptr %5, align 1
  %17 = sext i8 %16 to i32
  %18 = and i32 %17, 31
  %19 = trunc i32 %18 to i8
  store i8 %19, ptr %5, align 1
  store i8 %19, ptr %6, align 1
  %20 = load i32, ptr %3, align 4
  %21 = icmp eq i32 %20, 1
  br i1 %21, label %22, label %25

22:                                               ; preds = %13
  %23 = load i8, ptr %6, align 1
  %24 = sext i8 %23 to i32
  store i32 %24, ptr %4, align 4
  br label %58

25:                                               ; preds = %13
  %26 = load i8, ptr %6, align 1
  %27 = sext i8 %26 to i32
  %28 = and i32 %27, 255
  %29 = load i32, ptr %3, align 4
  %30 = sub nsw i32 %29, 1
  %31 = mul nsw i32 8, %30
  %32 = shl i32 %28, %31
  store i32 %32, ptr %4, align 4
  store i32 1, ptr %7, align 4
  br label %33

33:                                               ; preds = %54, %25
  %34 = load i32, ptr %7, align 4
  %35 = load i32, ptr %3, align 4
  %36 = icmp slt i32 %34, %35
  br i1 %36, label %37, label %57

37:                                               ; preds = %33
  %38 = load ptr, ptr %2, align 8
  %39 = load ptr, ptr %38, align 8
  %40 = load i32, ptr %7, align 4
  %41 = sext i32 %40 to i64
  %42 = getelementptr inbounds i8, ptr %39, i64 %41
  %43 = load i8, ptr %42, align 1
  %44 = zext i8 %43 to i32
  %45 = and i32 %44, 255
  %46 = load i32, ptr %3, align 4
  %47 = load i32, ptr %7, align 4
  %48 = sub nsw i32 %46, %47
  %49 = sub nsw i32 %48, 1
  %50 = mul nsw i32 8, %49
  %51 = shl i32 %45, %50
  %52 = load i32, ptr %4, align 4
  %53 = or i32 %52, %51
  store i32 %53, ptr %4, align 4
  br label %54

54:                                               ; preds = %37
  %55 = load i32, ptr %7, align 4
  %56 = add nsw i32 %55, 1
  store i32 %56, ptr %7, align 4
  br label %33, !llvm.loop !11

57:                                               ; preds = %33
  br label %58

58:                                               ; preds = %57, %22
  br label %90

59:                                               ; preds = %1
  %60 = load ptr, ptr %2, align 8
  %61 = load ptr, ptr %60, align 8
  %62 = getelementptr inbounds i8, ptr %61, i64 0
  %63 = load i8, ptr %62, align 1
  %64 = zext i8 %63 to i32
  %65 = and i32 %64, 255
  %66 = shl i32 %65, 24
  %67 = load ptr, ptr %2, align 8
  %68 = load ptr, ptr %67, align 8
  %69 = getelementptr inbounds i8, ptr %68, i64 1
  %70 = load i8, ptr %69, align 1
  %71 = zext i8 %70 to i32
  %72 = and i32 %71, 255
  %73 = shl i32 %72, 16
  %74 = or i32 %66, %73
  %75 = load ptr, ptr %2, align 8
  %76 = load ptr, ptr %75, align 8
  %77 = getelementptr inbounds i8, ptr %76, i64 2
  %78 = load i8, ptr %77, align 1
  %79 = zext i8 %78 to i32
  %80 = and i32 %79, 255
  %81 = shl i32 %80, 8
  %82 = or i32 %74, %81
  %83 = load ptr, ptr %2, align 8
  %84 = load ptr, ptr %83, align 8
  %85 = getelementptr inbounds i8, ptr %84, i64 3
  %86 = load i8, ptr %85, align 1
  %87 = zext i8 %86 to i32
  %88 = and i32 %87, 255
  %89 = or i32 %82, %88
  store i32 %89, ptr %4, align 4
  br label %90

90:                                               ; preds = %59, %58
  %91 = load i32, ptr %3, align 4
  %92 = load ptr, ptr %2, align 8
  %93 = load ptr, ptr %92, align 8
  %94 = sext i32 %91 to i64
  %95 = getelementptr inbounds i8, ptr %93, i64 %94
  store ptr %95, ptr %92, align 8
  %96 = load i32, ptr %4, align 4
  ret i32 %96
}