; Function Attrs: mustprogress nofree norecurse nosync nounwind memory(read, argmem: readwrite, inaccessiblemem: none) uwtable
define hidden noundef i32 @_ZN24SharedStringDecompressor14decompress_intERPh(ptr nocapture noundef nonnull align 8 dereferenceable(8) %0) local_unnamed_addr #8 align 2 {
  %2 = load ptr, ptr %0, align 8
  %3 = load i8, ptr %2, align 1
  %4 = icmp slt i8 %3, 0
  br i1 %4, label %5, label %25

5:                                                ; preds = %1
  %6 = lshr i8 %3, 5
  %7 = and i8 %6, 3
  %8 = zext nneg i8 %7 to i32
  %9 = and i8 %3, 31
  %10 = icmp eq i8 %7, 1
  %11 = zext nneg i8 %9 to i32
  br i1 %10, label %.loopexit, label %12

12:                                               ; preds = %5
  %13 = shl nuw nsw i32 %8, 3
  %14 = add nsw i32 %13, -8
  %15 = shl nuw nsw i32 %11, %14
  %.not = icmp eq i8 %7, 0
  br i1 %.not, label %.loopexit, label %.lr.ph.preheader

.lr.ph.preheader:                                 ; preds = %12
  %wide.trip.count = zext nneg i8 %7 to i64
  br label %.lr.ph

.lr.ph:                                           ; preds = %.lr.ph.preheader, %.lr.ph
  %indvars.iv = phi i64 [ 1, %.lr.ph.preheader ], [ %indvars.iv.next, %.lr.ph ]
  %.02326 = phi i32 [ %15, %.lr.ph.preheader ], [ %24, %.lr.ph ]
  %16 = getelementptr inbounds i8, ptr %2, i64 %indvars.iv
  %17 = load i8, ptr %16, align 1
  %18 = zext i8 %17 to i32
  %19 = trunc nuw nsw i64 %indvars.iv to i32
  %20 = xor i32 %19, -1
  %21 = add nsw i32 %20, %8
  %22 = shl nsw i32 %21, 3
  %23 = shl i32 %18, %22
  %24 = or i32 %23, %.02326
  %indvars.iv.next = add nuw nsw i64 %indvars.iv, 1
  %exitcond.not = icmp eq i64 %indvars.iv.next, %wide.trip.count
  br i1 %exitcond.not, label %.loopexit.loopexit, label %.lr.ph, !llvm.loop !9

25:                                               ; preds = %1
  %26 = zext nneg i8 %3 to i32
  %27 = shl nuw nsw i32 %26, 24
  %28 = getelementptr inbounds i8, ptr %2, i64 1
  %29 = load i8, ptr %28, align 1
  %30 = zext i8 %29 to i32
  %31 = shl nuw nsw i32 %30, 16
  %32 = or disjoint i32 %31, %27
  %33 = getelementptr inbounds i8, ptr %2, i64 2
  %34 = load i8, ptr %33, align 1
  %35 = zext i8 %34 to i32
  %36 = shl nuw nsw i32 %35, 8
  %37 = or disjoint i32 %32, %36
  %38 = getelementptr inbounds i8, ptr %2, i64 3
  %39 = load i8, ptr %38, align 1
  %40 = zext i8 %39 to i32
  %41 = or disjoint i32 %37, %40
  br label %.loopexit

.loopexit.loopexit:                               ; preds = %.lr.ph
  %42 = zext nneg i8 %7 to i64
  br label %.loopexit

.loopexit:                                        ; preds = %.loopexit.loopexit, %5, %12, %25
  %.1 = phi i32 [ %41, %25 ], [ %15, %12 ], [ %11, %5 ], [ %24, %.loopexit.loopexit ]
  %.022 = phi i64 [ 4, %25 ], [ 0, %12 ], [ 1, %5 ], [ %42, %.loopexit.loopexit ]
  %43 = getelementptr inbounds i8, ptr %2, i64 %.022
  store ptr %43, ptr %0, align 8
  ret i32 %.1
}